; Function Attrs: mustprogress nofree nounwind willreturn memory(read, inaccessiblemem: none) uwtable
define dso_local { ptr, i64 } @_ZN4llvm4CSKY17getArchExtFeatureENS_9StringRefE(ptr readonly captures(none) %0, i64 %1) local_unnamed_addr #2 {
  %.not.i.i = icmp ult i64 %1, 2
  br i1 %.not.i.i, label %_ZL19stripNegationPrefixRN4llvm9StringRefE.exit, label %_ZNK4llvm9StringRef11starts_withES0_.exit.i

_ZNK4llvm9StringRef11starts_withES0_.exit.i:      ; preds = %2
  %bcmp.i.i = tail call i32 @bcmp(ptr noundef nonnull dereferenceable(2) %0, ptr noundef nonnull dereferenceable(2) @.str.302, i64 2)
  %3 = icmp eq i32 %bcmp.i.i, 0
  br i1 %3, label %_ZNK4llvm9StringRef11starts_withES0_.exit.thread.i, label %_ZL19stripNegationPrefixRN4llvm9StringRefE.exit

_ZNK4llvm9StringRef11starts_withES0_.exit.thread.i: ; preds = %_ZNK4llvm9StringRef11starts_withES0_.exit.i
  %4 = getelementptr inbounds nuw i8, ptr %0, i64 2
  %5 = add i64 %1, -2
  br label %_ZL19stripNegationPrefixRN4llvm9StringRefE.exit

_ZL19stripNegationPrefixRN4llvm9StringRefE.exit:  ; preds = %2, %_ZNK4llvm9StringRef11starts_withES0_.exit.i, %_ZNK4llvm9StringRef11starts_withES0_.exit.thread.i
  %.sroa.4.0 = phi i64 [ %1, %2 ], [ %5, %_ZNK4llvm9StringRef11starts_withES0_.exit.thread.i ], [ %1, %_ZNK4llvm9StringRef11starts_withES0_.exit.i ]
  %.sroa.0.0 = phi ptr [ %0, %2 ], [ %4, %_ZNK4llvm9StringRef11starts_withES0_.exit.thread.i ], [ %0, %_ZNK4llvm9StringRef11starts_withES0_.exit.i ]
  %.in.v = phi i64 [ 24, %2 ], [ 32, %_ZNK4llvm9StringRef11starts_withES0_.exit.thread.i ], [ 24, %_ZNK4llvm9StringRef11starts_withES0_.exit.i ]
  %.sroa.4.0.fr = freeze i64 %.sroa.4.0
  %6 = icmp eq i64 %.sroa.4.0.fr, 0
  br i1 %6, label %_ZL19stripNegationPrefixRN4llvm9StringRefE.exit.split.us, label %_ZL19stripNegationPrefixRN4llvm9StringRefE.exit.split

_ZL19stripNegationPrefixRN4llvm9StringRefE.exit.split.us: ; preds = %_ZL19stripNegationPrefixRN4llvm9StringRefE.exit, %_ZN4llvmeqENS_9StringRefES0_.exit.thread18.us
  %.0.idx21.us = phi i64 [ %.0.add.us, %_ZN4llvmeqENS_9StringRefES0_.exit.thread18.us ], [ 0, %_ZL19stripNegationPrefixRN4llvm9StringRefE.exit ]
  %.0.ptr22.us = getelementptr inbounds nuw i8, ptr @_ZN4llvm4CSKYL16CSKYARCHExtNamesE, i64 %.0.idx21.us
  %7 = getelementptr inbounds nuw i8, ptr %.0.ptr22.us, i64 24
  %8 = load ptr, ptr %7, align 8
  %.not10.us = icmp eq ptr %8, null
  br i1 %.not10.us, label %_ZN4llvmeqENS_9StringRefES0_.exit.thread18.us, label %9

9:                                                ; preds = %_ZL19stripNegationPrefixRN4llvm9StringRefE.exit.split.us
  %10 = getelementptr inbounds nuw i8, ptr %.0.ptr22.us, i64 8
  %11 = load i64, ptr %10, align 8
  %.not.i.us = icmp eq i64 %11, 0
  br i1 %.not.i.us, label %_ZN4llvmeqENS_9StringRefES0_.exit.thread, label %_ZN4llvmeqENS_9StringRefES0_.exit.thread18.us

_ZN4llvmeqENS_9StringRefES0_.exit.thread18.us:    ; preds = %9, %_ZL19stripNegationPrefixRN4llvm9StringRefE.exit.split.us
  %.0.add.us = add nuw nsw i64 %.0.idx21.us, 40
  %.not.us = icmp eq i64 %.0.add.us, 2040
  br i1 %.not.us, label %_ZN4llvm9StringRefC2EPKc.exit, label %_ZL19stripNegationPrefixRN4llvm9StringRefE.exit.split.us

_ZL19stripNegationPrefixRN4llvm9StringRefE.exit.split: ; preds = %_ZL19stripNegationPrefixRN4llvm9StringRefE.exit, %_ZN4llvmeqENS_9StringRefES0_.exit.thread18
  %.0.idx21 = phi i64 [ %.0.add, %_ZN4llvmeqENS_9StringRefES0_.exit.thread18 ], [ 0, %_ZL19stripNegationPrefixRN4llvm9StringRefE.exit ]
  %.0.ptr22 = getelementptr inbounds nuw i8, ptr @_ZN4llvm4CSKYL16CSKYARCHExtNamesE, i64 %.0.idx21
  %12 = getelementptr inbounds nuw i8, ptr %.0.ptr22, i64 24
  %13 = load ptr, ptr %12, align 8
  %.not10 = icmp eq ptr %13, null
  br i1 %.not10, label %_ZN4llvmeqENS_9StringRefES0_.exit.thread18, label %14

14:                                               ; preds = %_ZL19stripNegationPrefixRN4llvm9StringRefE.exit.split
  %15 = getelementptr inbounds nuw i8, ptr %.0.ptr22, i64 8
  %16 = load i64, ptr %15, align 8
  %.not.i = icmp eq i64 %.sroa.4.0.fr, %16
  br i1 %.not.i, label %_ZN4llvmeqENS_9StringRefES0_.exit, label %_ZN4llvmeqENS_9StringRefES0_.exit.thread18

_ZN4llvmeqENS_9StringRefES0_.exit:                ; preds = %14
  %17 = load ptr, ptr %.0.ptr22, align 8
  %bcmp.i = tail call i32 @bcmp(ptr %.sroa.0.0, ptr %17, i64 %.sroa.4.0.fr)
  %18 = icmp eq i32 %bcmp.i, 0
  br i1 %18, label %_ZN4llvmeqENS_9StringRefES0_.exit.thread, label %_ZN4llvmeqENS_9StringRefES0_.exit.thread18

_ZN4llvmeqENS_9StringRefES0_.exit.thread:         ; preds = %_ZN4llvmeqENS_9StringRefES0_.exit, %9
  %19 = phi i64 [ %.0.idx21.us, %9 ], [ %.0.idx21, %_ZN4llvmeqENS_9StringRefES0_.exit ]
  %20 = getelementptr inbounds nuw i8, ptr @_ZN4llvm4CSKYL16CSKYARCHExtNamesE, i64 %19
  %.in = getelementptr inbounds nuw i8, ptr %20, i64 %.in.v
  %21 = load ptr, ptr %.in, align 8
  %.not.i11 = icmp eq ptr %21, null
  br i1 %.not.i11, label %_ZN4llvm9StringRefC2EPKc.exit, label %22

22:                                               ; preds = %_ZN4llvmeqENS_9StringRefES0_.exit.thread
  %23 = tail call noundef i64 @strlen(ptr noundef nonnull dereferenceable(1) %21) #16
  br label %_ZN4llvm9StringRefC2EPKc.exit

_ZN4llvmeqENS_9StringRefES0_.exit.thread18:       ; preds = %14, %_ZL19stripNegationPrefixRN4llvm9StringRefE.exit.split, %_ZN4llvmeqENS_9StringRefES0_.exit
  %.0.add = add nuw nsw i64 %.0.idx21, 40
  %.not = icmp eq i64 %.0.add, 2040
  br i1 %.not, label %_ZN4llvm9StringRefC2EPKc.exit, label %_ZL19stripNegationPrefixRN4llvm9StringRefE.exit.split

_ZN4llvm9StringRefC2EPKc.exit:                    ; preds = %_ZN4llvmeqENS_9StringRefES0_.exit.thread18, %_ZN4llvmeqENS_9StringRefES0_.exit.thread18.us, %22, %_ZN4llvmeqENS_9StringRefES0_.exit.thread
  %.sroa.013.0 = phi ptr [ null, %_ZN4llvmeqENS_9StringRefES0_.exit.thread ], [ %21, %22 ], [ null, %_ZN4llvmeqENS_9StringRefES0_.exit.thread18.us ], [ null, %_ZN4llvmeqENS_9StringRefES0_.exit.thread18 ]
  %.sroa.414.0 = phi i64 [ 0, %_ZN4llvmeqENS_9StringRefES0_.exit.thread ], [ %23, %22 ], [ 0, %_ZN4llvmeqENS_9StringRefES0_.exit.thread18.us ], [ 0, %_ZN4llvmeqENS_9StringRefES0_.exit.thread18 ]
  %.fca.0.insert = insertvalue { ptr, i64 } poison, ptr %.sroa.013.0, 0
  %.fca.1.insert = insertvalue { ptr, i64 } %.fca.0.insert, i64 %.sroa.414.0, 1
  ret { ptr, i64 } %.fca.1.insert
}